; Function Attrs: nounwind uwtable
define internal void @indent_printf(i32 noundef %0, ptr noundef %1, ptr noundef %2, ...) unnamed_addr #0 {
  %4 = alloca [1 x %struct.__va_list_tag], align 16
  call void @llvm.lifetime.start.p0(i64 24, ptr nonnull %4) #5
  call void @llvm.va_start.p0(ptr nonnull %4)
  %5 = call i32 (ptr, ptr, ...) @BIO_printf(ptr noundef %1, ptr noundef nonnull @.str.75, i32 noundef %0, ptr noundef nonnull @.str.4) #5
  %6 = call i32 @BIO_vprintf(ptr noundef %1, ptr noundef %2, ptr noundef nonnull %4) #5
  call void @llvm.va_end.p0(ptr nonnull %4)
  call void @llvm.lifetime.end.p0(i64 24, ptr nonnull %4) #5
  ret void
}